; Function Attrs: mustprogress uwtable
define void @_ZNK11TransTableL14SingleLenToStrB5cxx11EPKh(ptr dead_on_unwind noalias writable sret(%"class.std::__cxx11::basic_string") align 8 %0, ptr nocapture nonnull readnone align 8 %1, ptr nocapture noundef readonly %2) local_unnamed_addr #21 align 2 personality ptr @__gxx_personality_v0 {
  %4 = alloca %"class.std::__cxx11::basic_string", align 8
  %5 = alloca %"class.std::__cxx11::basic_string", align 8
  %6 = alloca %"class.std::__cxx11::basic_string", align 8
  %7 = alloca %"class.std::__cxx11::basic_string", align 8
  %8 = alloca %"class.std::__cxx11::basic_string", align 8
  %9 = alloca %"class.std::__cxx11::basic_string", align 8
  %10 = alloca %"class.std::__cxx11::basic_string", align 8
  %11 = alloca %"class.std::__cxx11::basic_string", align 8
  %12 = alloca %"class.std::__cxx11::basic_string", align 8
  %13 = load i8, ptr %2, align 1
  %14 = zext i8 %13 to i32
  call void @_ZNSt7__cxx119to_stringEj(ptr dead_on_unwind nonnull writable sret(%"class.std::__cxx11::basic_string") align 8 %9, i32 noundef %14) #32
  %15 = invoke noundef nonnull align 8 dereferenceable(32) ptr @_ZNSt7__cxx1112basic_stringIcSt11char_traitsIcESaIcEE6appendEPKc(ptr noundef nonnull align 8 dereferenceable(32) %9, ptr noundef nonnull @.str.15)
          to label %16 unwind label %66

16:                                               ; preds = %3
  call void @_ZNSt7__cxx1112basic_stringIcSt11char_traitsIcESaIcEEC1EOS4_(ptr noundef nonnull align 8 dereferenceable(32) %8, ptr noundef nonnull align 8 dereferenceable(32) %15) #32
  %17 = getelementptr inbounds i8, ptr %2, i64 1
  %18 = load i8, ptr %17, align 1
  %19 = zext i8 %18 to i32
  call void @_ZNSt7__cxx119to_stringEj(ptr dead_on_unwind nonnull writable sret(%"class.std::__cxx11::basic_string") align 8 %10, i32 noundef %19) #32
  %20 = call noundef i64 @_ZNKSt7__cxx1112basic_stringIcSt11char_traitsIcESaIcEE4sizeEv(ptr noundef nonnull align 8 dereferenceable(32) %8) #32, !noalias !42
  %21 = call noundef i64 @_ZNKSt7__cxx1112basic_stringIcSt11char_traitsIcESaIcEE4sizeEv(ptr noundef nonnull align 8 dereferenceable(32) %10) #32, !noalias !42
  %22 = add i64 %21, %20
  %23 = call noundef i64 @_ZNKSt7__cxx1112basic_stringIcSt11char_traitsIcESaIcEE8capacityEv(ptr noundef nonnull align 8 dereferenceable(32) %8) #32, !noalias !42
  %24 = icmp ugt i64 %22, %23
  br i1 %24, label %25, label %29

25:                                               ; preds = %16
  %26 = call noundef i64 @_ZNKSt7__cxx1112basic_stringIcSt11char_traitsIcESaIcEE8capacityEv(ptr noundef nonnull align 8 dereferenceable(32) %10) #32, !noalias !42
  %.not.i = icmp ugt i64 %22, %26
  br i1 %.not.i, label %29, label %27

27:                                               ; preds = %25
  %28 = invoke noundef nonnull align 8 dereferenceable(32) ptr @_ZNSt7__cxx1112basic_stringIcSt11char_traitsIcESaIcEE6insertEmRKS4_(ptr noundef nonnull align 8 dereferenceable(32) %10, i64 noundef 0, ptr noundef nonnull align 8 dereferenceable(32) %8)
          to label %31 unwind label %68

29:                                               ; preds = %25, %16
  %30 = invoke noundef nonnull align 8 dereferenceable(32) ptr @_ZNSt7__cxx1112basic_stringIcSt11char_traitsIcESaIcEE6appendERKS4_(ptr noundef nonnull align 8 dereferenceable(32) %8, ptr noundef nonnull align 8 dereferenceable(32) %10)
          to label %31 unwind label %68

31:                                               ; preds = %27, %29
  %.sink.i = phi ptr [ %28, %27 ], [ %30, %29 ]
  call void @_ZNSt7__cxx1112basic_stringIcSt11char_traitsIcESaIcEEC1EOS4_(ptr noundef nonnull align 8 dereferenceable(32) %7, ptr noundef nonnull align 8 dereferenceable(32) %.sink.i) #32
  %32 = invoke noundef nonnull align 8 dereferenceable(32) ptr @_ZNSt7__cxx1112basic_stringIcSt11char_traitsIcESaIcEE6appendEPKc(ptr noundef nonnull align 8 dereferenceable(32) %7, ptr noundef nonnull @.str.15)
          to label %33 unwind label %70

33:                                               ; preds = %31
  call void @_ZNSt7__cxx1112basic_stringIcSt11char_traitsIcESaIcEEC1EOS4_(ptr noundef nonnull align 8 dereferenceable(32) %6, ptr noundef nonnull align 8 dereferenceable(32) %32) #32
  %34 = getelementptr inbounds i8, ptr %2, i64 2
  %35 = load i8, ptr %34, align 1
  %36 = zext i8 %35 to i32
  call void @_ZNSt7__cxx119to_stringEj(ptr dead_on_unwind nonnull writable sret(%"class.std::__cxx11::basic_string") align 8 %11, i32 noundef %36) #32
  %37 = call noundef i64 @_ZNKSt7__cxx1112basic_stringIcSt11char_traitsIcESaIcEE4sizeEv(ptr noundef nonnull align 8 dereferenceable(32) %6) #32, !noalias !45
  %38 = call noundef i64 @_ZNKSt7__cxx1112basic_stringIcSt11char_traitsIcESaIcEE4sizeEv(ptr noundef nonnull align 8 dereferenceable(32) %11) #32, !noalias !45
  %39 = add i64 %38, %37
  %40 = call noundef i64 @_ZNKSt7__cxx1112basic_stringIcSt11char_traitsIcESaIcEE8capacityEv(ptr noundef nonnull align 8 dereferenceable(32) %6) #32, !noalias !45
  %41 = icmp ugt i64 %39, %40
  br i1 %41, label %42, label %46

42:                                               ; preds = %33
  %43 = call noundef i64 @_ZNKSt7__cxx1112basic_stringIcSt11char_traitsIcESaIcEE8capacityEv(ptr noundef nonnull align 8 dereferenceable(32) %11) #32, !noalias !45
  %.not.i19 = icmp ugt i64 %39, %43
  br i1 %.not.i19, label %46, label %44

44:                                               ; preds = %42
  %45 = invoke noundef nonnull align 8 dereferenceable(32) ptr @_ZNSt7__cxx1112basic_stringIcSt11char_traitsIcESaIcEE6insertEmRKS4_(ptr noundef nonnull align 8 dereferenceable(32) %11, i64 noundef 0, ptr noundef nonnull align 8 dereferenceable(32) %6)
          to label %48 unwind label %72

46:                                               ; preds = %42, %33
  %47 = invoke noundef nonnull align 8 dereferenceable(32) ptr @_ZNSt7__cxx1112basic_stringIcSt11char_traitsIcESaIcEE6appendERKS4_(ptr noundef nonnull align 8 dereferenceable(32) %6, ptr noundef nonnull align 8 dereferenceable(32) %11)
          to label %48 unwind label %72

48:                                               ; preds = %44, %46
  %.sink.i18 = phi ptr [ %45, %44 ], [ %47, %46 ]
  call void @_ZNSt7__cxx1112basic_stringIcSt11char_traitsIcESaIcEEC1EOS4_(ptr noundef nonnull align 8 dereferenceable(32) %5, ptr noundef nonnull align 8 dereferenceable(32) %.sink.i18) #32
  %49 = invoke noundef nonnull align 8 dereferenceable(32) ptr @_ZNSt7__cxx1112basic_stringIcSt11char_traitsIcESaIcEE6appendEPKc(ptr noundef nonnull align 8 dereferenceable(32) %5, ptr noundef nonnull @.str.15)
          to label %50 unwind label %74

50:                                               ; preds = %48
  call void @_ZNSt7__cxx1112basic_stringIcSt11char_traitsIcESaIcEEC1EOS4_(ptr noundef nonnull align 8 dereferenceable(32) %4, ptr noundef nonnull align 8 dereferenceable(32) %49) #32
  %51 = getelementptr inbounds i8, ptr %2, i64 3
  %52 = load i8, ptr %51, align 1
  %53 = zext i8 %52 to i32
  call void @_ZNSt7__cxx119to_stringEj(ptr dead_on_unwind nonnull writable sret(%"class.std::__cxx11::basic_string") align 8 %12, i32 noundef %53) #32
  %54 = call noundef i64 @_ZNKSt7__cxx1112basic_stringIcSt11char_traitsIcESaIcEE4sizeEv(ptr noundef nonnull align 8 dereferenceable(32) %4) #32, !noalias !48
  %55 = call noundef i64 @_ZNKSt7__cxx1112basic_stringIcSt11char_traitsIcESaIcEE4sizeEv(ptr noundef nonnull align 8 dereferenceable(32) %12) #32, !noalias !48
  %56 = add i64 %55, %54
  %57 = call noundef i64 @_ZNKSt7__cxx1112basic_stringIcSt11char_traitsIcESaIcEE8capacityEv(ptr noundef nonnull align 8 dereferenceable(32) %4) #32, !noalias !48
  %58 = icmp ugt i64 %56, %57
  br i1 %58, label %59, label %63

59:                                               ; preds = %50
  %60 = call noundef i64 @_ZNKSt7__cxx1112basic_stringIcSt11char_traitsIcESaIcEE8capacityEv(ptr noundef nonnull align 8 dereferenceable(32) %12) #32, !noalias !48
  %.not.i26 = icmp ugt i64 %56, %60
  br i1 %.not.i26, label %63, label %61

61:                                               ; preds = %59
  %62 = invoke noundef nonnull align 8 dereferenceable(32) ptr @_ZNSt7__cxx1112basic_stringIcSt11char_traitsIcESaIcEE6insertEmRKS4_(ptr noundef nonnull align 8 dereferenceable(32) %12, i64 noundef 0, ptr noundef nonnull align 8 dereferenceable(32) %4)
          to label %65 unwind label %76

63:                                               ; preds = %59, %50
  %64 = invoke noundef nonnull align 8 dereferenceable(32) ptr @_ZNSt7__cxx1112basic_stringIcSt11char_traitsIcESaIcEE6appendERKS4_(ptr noundef nonnull align 8 dereferenceable(32) %4, ptr noundef nonnull align 8 dereferenceable(32) %12)
          to label %65 unwind label %76

65:                                               ; preds = %61, %63
  %.sink.i25 = phi ptr [ %62, %61 ], [ %64, %63 ]
  call void @_ZNSt7__cxx1112basic_stringIcSt11char_traitsIcESaIcEEC1EOS4_(ptr noundef nonnull align 8 dereferenceable(32) %0, ptr noundef nonnull align 8 dereferenceable(32) %.sink.i25) #32
  call void @_ZNSt7__cxx1112basic_stringIcSt11char_traitsIcESaIcEED1Ev(ptr noundef nonnull align 8 dereferenceable(32) %12) #32
  call void @_ZNSt7__cxx1112basic_stringIcSt11char_traitsIcESaIcEED1Ev(ptr noundef nonnull align 8 dereferenceable(32) %4) #32
  call void @_ZNSt7__cxx1112basic_stringIcSt11char_traitsIcESaIcEED1Ev(ptr noundef nonnull align 8 dereferenceable(32) %5) #32
  call void @_ZNSt7__cxx1112basic_stringIcSt11char_traitsIcESaIcEED1Ev(ptr noundef nonnull align 8 dereferenceable(32) %11) #32
  call void @_ZNSt7__cxx1112basic_stringIcSt11char_traitsIcESaIcEED1Ev(ptr noundef nonnull align 8 dereferenceable(32) %6) #32
  call void @_ZNSt7__cxx1112basic_stringIcSt11char_traitsIcESaIcEED1Ev(ptr noundef nonnull align 8 dereferenceable(32) %7) #32
  call void @_ZNSt7__cxx1112basic_stringIcSt11char_traitsIcESaIcEED1Ev(ptr noundef nonnull align 8 dereferenceable(32) %10) #32
  call void @_ZNSt7__cxx1112basic_stringIcSt11char_traitsIcESaIcEED1Ev(ptr noundef nonnull align 8 dereferenceable(32) %8) #32
  call void @_ZNSt7__cxx1112basic_stringIcSt11char_traitsIcESaIcEED1Ev(ptr noundef nonnull align 8 dereferenceable(32) %9) #32
  ret void

66:                                               ; preds = %3
  %67 = landingpad { ptr, i32 }
          cleanup
  br label %82

68:                                               ; preds = %29, %27
  %69 = landingpad { ptr, i32 }
          cleanup
  br label %81

70:                                               ; preds = %31
  %71 = landingpad { ptr, i32 }
          cleanup
  br label %80

72:                                               ; preds = %46, %44
  %73 = landingpad { ptr, i32 }
          cleanup
  br label %79

74:                                               ; preds = %48
  %75 = landingpad { ptr, i32 }
          cleanup
  br label %78

76:                                               ; preds = %63, %61
  %77 = landingpad { ptr, i32 }
          cleanup
  call void @_ZNSt7__cxx1112basic_stringIcSt11char_traitsIcESaIcEED1Ev(ptr noundef nonnull align 8 dereferenceable(32) %12) #32
  call void @_ZNSt7__cxx1112basic_stringIcSt11char_traitsIcESaIcEED1Ev(ptr noundef nonnull align 8 dereferenceable(32) %4) #32
  br label %78

78:                                               ; preds = %76, %74
  %.pn = phi { ptr, i32 } [ %77, %76 ], [ %75, %74 ]
  call void @_ZNSt7__cxx1112basic_stringIcSt11char_traitsIcESaIcEED1Ev(ptr noundef nonnull align 8 dereferenceable(32) %5) #32
  br label %79

79:                                               ; preds = %78, %72
  %.pn.pn = phi { ptr, i32 } [ %.pn, %78 ], [ %73, %72 ]
  call void @_ZNSt7__cxx1112basic_stringIcSt11char_traitsIcESaIcEED1Ev(ptr noundef nonnull align 8 dereferenceable(32) %11) #32
  call void @_ZNSt7__cxx1112basic_stringIcSt11char_traitsIcESaIcEED1Ev(ptr noundef nonnull align 8 dereferenceable(32) %6) #32
  br label %80

80:                                               ; preds = %79, %70
  %.pn.pn.pn = phi { ptr, i32 } [ %.pn.pn, %79 ], [ %71, %70 ]
  call void @_ZNSt7__cxx1112basic_stringIcSt11char_traitsIcESaIcEED1Ev(ptr noundef nonnull align 8 dereferenceable(32) %7) #32
  br label %81

81:                                               ; preds = %80, %68
  %.pn.pn.pn.pn = phi { ptr, i32 } [ %.pn.pn.pn, %80 ], [ %69, %68 ]
  call void @_ZNSt7__cxx1112basic_stringIcSt11char_traitsIcESaIcEED1Ev(ptr noundef nonnull align 8 dereferenceable(32) %10) #32
  call void @_ZNSt7__cxx1112basic_stringIcSt11char_traitsIcESaIcEED1Ev(ptr noundef nonnull align 8 dereferenceable(32) %8) #32
  br label %82

82:                                               ; preds = %81, %66
  %.pn.pn.pn.pn.pn = phi { ptr, i32 } [ %.pn.pn.pn.pn, %81 ], [ %67, %66 ]
  call void @_ZNSt7__cxx1112basic_stringIcSt11char_traitsIcESaIcEED1Ev(ptr noundef nonnull align 8 dereferenceable(32) %9) #32
  resume { ptr, i32 } %.pn.pn.pn.pn.pn
}